; ModuleID = '13/1053.c'
source_filename = "13/1053.c"
target datalayout = "e-m:e-p270:32:32-p271:32:32-p272:64:64-i64:64-f80:128-n8:16:32:64-S128"
target triple = "x86_64-pc-linux-gnu"

@.str = private unnamed_addr constant [3 x i8] c"%d\00", align 1
@.str.1 = private unnamed_addr constant [4 x i8] c" %d\00", align 1

; Function Attrs: noinline nounwind uwtable
define dso_local i32 @main() #0 {
  %1 = alloca i32, align 4
  %2 = alloca i32, align 4
  %3 = alloca i32, align 4
  %4 = alloca i32, align 4
  %5 = alloca i32, align 4
  %6 = alloca i32, align 4
  %7 = alloca i32, align 4
  %8 = alloca [20000 x i32], align 16
  store i32 0, i32* %1, align 4
  store i32 0, i32* %6, align 4
  store i32 1, i32* %7, align 4
  %9 = call i32 (i8*, ...) @__isoc99_scanf(i8* getelementptr inbounds ([3 x i8], [3 x i8]* @.str, i64 0, i64 0), i32* %2)
  store i32 0, i32* %5, align 4
  br label %10

10:                                               ; preds = %19, %0
  %11 = load i32, i32* %5, align 4
  %12 = load i32, i32* %2, align 4
  %13 = icmp slt i32 %11, %12
  br i1 %13, label %14, label %22

14:                                               ; preds = %10
  %15 = load i32, i32* %5, align 4
  %16 = sext i32 %15 to i64
  %17 = getelementptr inbounds [20000 x i32], [20000 x i32]* %8, i64 0, i64 %16
  %18 = call i32 (i8*, ...) @__isoc99_scanf(i8* getelementptr inbounds ([3 x i8], [3 x i8]* @.str, i64 0, i64 0), i32* %17)
  br label %19

19:                                               ; preds = %14
  %20 = load i32, i32* %5, align 4
  %21 = add nsw i32 %20, 1
  store i32 %21, i32* %5, align 4
  br label %10

22:                                               ; preds = %10
  store i32 0, i32* %5, align 4
  br label %23

23:                                               ; preds = %79, %22
  %24 = load i32, i32* %5, align 4
  %25 = load i32, i32* %2, align 4
  %26 = icmp slt i32 %24, %25
  br i1 %26, label %27, label %82

27:                                               ; preds = %23
  store i32 0, i32* %6, align 4
  store i32 0, i32* %4, align 4
  br label %28

28:                                               ; preds = %51, %27
  %29 = load i32, i32* %4, align 4
  %30 = load i32, i32* %5, align 4
  %31 = add nsw i32 %30, 1
  %32 = icmp slt i32 %29, %31
  br i1 %32, label %33, label %54

33:                                               ; preds = %28
  %34 = load i32, i32* %4, align 4
  %35 = load i32, i32* %5, align 4
  %36 = icmp eq i32 %34, %35
  br i1 %36, label %37, label %38

37:                                               ; preds = %33
  br label %51

38:                                               ; preds = %33
  %39 = load i32, i32* %5, align 4
  %40 = sext i32 %39 to i64
  %41 = getelementptr inbounds [20000 x i32], [20000 x i32]* %8, i64 0, i64 %40
  %42 = load i32, i32* %41, align 4
  %43 = load i32, i32* %4, align 4
  %44 = sext i32 %43 to i64
  %45 = getelementptr inbounds [20000 x i32], [20000 x i32]* %8, i64 0, i64 %44
  %46 = load i32, i32* %45, align 4
  %47 = icmp eq i32 %42, %46
  br i1 %47, label %48, label %49

48:                                               ; preds = %38
  store i32 1, i32* %6, align 4
  br label %54

49:                                               ; preds = %38
  br label %50

50:                                               ; preds = %49
  br label %51

51:                                               ; preds = %50, %37
  %52 = load i32, i32* %4, align 4
  %53 = add nsw i32 %52, 1
  store i32 %53, i32* %4, align 4
  br label %28

54:                                               ; preds = %48, %28
  %55 = load i32, i32* %6, align 4
  %56 = icmp eq i32 %55, 0
  br i1 %56, label %57, label %66

57:                                               ; preds = %54
  %58 = load i32, i32* %7, align 4
  %59 = icmp eq i32 %58, 1
  br i1 %59, label %60, label %66

60:                                               ; preds = %57
  %61 = load i32, i32* %5, align 4
  %62 = sext i32 %61 to i64
  %63 = getelementptr inbounds [20000 x i32], [20000 x i32]* %8, i64 0, i64 %62
  %64 = load i32, i32* %63, align 4
  %65 = call i32 (i8*, ...) @printf(i8* getelementptr inbounds ([3 x i8], [3 x i8]* @.str, i64 0, i64 0), i32 %64)
  store i32 0, i32* %7, align 4
  br label %79

66:                                               ; preds = %57, %54
  %67 = load i32, i32* %6, align 4
  %68 = icmp eq i32 %67, 0
  br i1 %68, label %69, label %78

69:                                               ; preds = %66
  %70 = load i32, i32* %7, align 4
  %71 = icmp eq i32 %70, 0
  br i1 %71, label %72, label %78

72:                                               ; preds = %69
  %73 = load i32, i32* %5, align 4
  %74 = sext i32 %73 to i64
  %75 = getelementptr inbounds [20000 x i32], [20000 x i32]* %8, i64 0, i64 %74
  %76 = load i32, i32* %75, align 4
  %77 = call i32 (i8*, ...) @printf(i8* getelementptr inbounds ([4 x i8], [4 x i8]* @.str.1, i64 0, i64 0), i32 %76)
  br label %78

78:                                               ; preds = %72, %69, %66
  br label %79

79:                                               ; preds = %78, %60
  %80 = load i32, i32* %5, align 4
  %81 = add nsw i32 %80, 1
  store i32 %81, i32* %5, align 4
  br label %23

82:                                               ; preds = %23
  ret i32 0
}

declare dso_local i32 @__isoc99_scanf(i8*, ...) #1

declare dso_local i32 @printf(i8*, ...) #1


!llvm.module.flags = !{!0}
!llvm.ident = !{!1}

!0 = !{i32 1, !"wchar_size", i32 4}
!1 = !{!"clang version 10.0.0-4ubuntu1 "}
