; ModuleID = 'source-C-CXX/12/1053.c'
source_filename = "source-C-CXX/12/1053.c"
target datalayout = "e-m:e-p270:32:32-p271:32:32-p272:64:64-i64:64-f80:128-n8:16:32:64-S128"
target triple = "x86_64-pc-linux-gnu"

@.str = private unnamed_addr constant [3 x i8] c"%d\00", align 1
@.str.1 = private unnamed_addr constant [4 x i8] c" %d\00", align 1

; Function Attrs: nofree nounwind sspstrong uwtable
define dso_local i32 @main() local_unnamed_addr #0 {
  %1 = alloca i32, align 4
  %2 = alloca [20000 x i32], align 16
  %3 = bitcast i32* %1 to i8*
  call void @llvm.lifetime.start.p0i8(i64 4, i8* nonnull %3) #3
  %4 = bitcast [20000 x i32]* %2 to i8*
  call void @llvm.lifetime.start.p0i8(i64 80000, i8* nonnull %4) #3
  %5 = call i32 (i8*, ...) @__isoc99_scanf(i8* getelementptr inbounds ([3 x i8], [3 x i8]* @.str, i64 0, i64 0), i32* nonnull %1)
  %6 = load i32, i32* %1, align 4, !tbaa !5
  %7 = icmp sgt i32 %6, 0
  br i1 %7, label %10, label %47

8:                                                ; preds = %10
  %9 = icmp sgt i32 %15, 0
  br i1 %9, label %18, label %47

10:                                               ; preds = %0, %10
  %11 = phi i64 [ %14, %10 ], [ 0, %0 ]
  %12 = getelementptr inbounds [20000 x i32], [20000 x i32]* %2, i64 0, i64 %11
  %13 = call i32 (i8*, ...) @__isoc99_scanf(i8* getelementptr inbounds ([3 x i8], [3 x i8]* @.str, i64 0, i64 0), i32* nonnull %12)
  %14 = add nuw nsw i64 %11, 1
  %15 = load i32, i32* %1, align 4, !tbaa !5
  %16 = sext i32 %15 to i64
  %17 = icmp slt i64 %14, %16
  br i1 %17, label %10, label %8, !llvm.loop !9

18:                                               ; preds = %8, %40
  %19 = phi i64 [ %42, %40 ], [ 0, %8 ]
  %20 = phi i64 [ %46, %40 ], [ 1, %8 ]
  %21 = phi i32 [ %41, %40 ], [ 1, %8 ]
  %22 = getelementptr inbounds [20000 x i32], [20000 x i32]* %2, i64 0, i64 %19
  br label %23

23:                                               ; preds = %18, %31
  %24 = phi i64 [ 0, %18 ], [ %32, %31 ]
  %25 = icmp eq i64 %24, %19
  br i1 %25, label %31, label %26

26:                                               ; preds = %23
  %27 = load i32, i32* %22, align 4, !tbaa !5
  %28 = getelementptr inbounds [20000 x i32], [20000 x i32]* %2, i64 0, i64 %24
  %29 = load i32, i32* %28, align 4, !tbaa !5
  %30 = icmp eq i32 %27, %29
  br i1 %30, label %40, label %31

31:                                               ; preds = %26, %23
  %32 = add nuw nsw i64 %24, 1
  %33 = icmp eq i64 %32, %20
  br i1 %33, label %34, label %23, !llvm.loop !11

34:                                               ; preds = %31
  switch i32 %21, label %40 [
    i32 1, label %36
    i32 0, label %35
  ]

35:                                               ; preds = %34
  br label %36

36:                                               ; preds = %34, %35
  %37 = phi i8* [ getelementptr inbounds ([4 x i8], [4 x i8]* @.str.1, i64 0, i64 0), %35 ], [ getelementptr inbounds ([3 x i8], [3 x i8]* @.str, i64 0, i64 0), %34 ]
  %38 = load i32, i32* %22, align 4, !tbaa !5
  %39 = call i32 (i8*, ...) @printf(i8* nonnull dereferenceable(1) %37, i32 %38)
  br label %40

40:                                               ; preds = %26, %36, %34
  %41 = phi i32 [ %21, %34 ], [ 0, %36 ], [ %21, %26 ]
  %42 = add nuw nsw i64 %19, 1
  %43 = load i32, i32* %1, align 4, !tbaa !5
  %44 = sext i32 %43 to i64
  %45 = icmp slt i64 %42, %44
  %46 = add nuw nsw i64 %20, 1
  br i1 %45, label %18, label %47, !llvm.loop !12

47:                                               ; preds = %40, %0, %8
  call void @llvm.lifetime.end.p0i8(i64 80000, i8* nonnull %4) #3
  call void @llvm.lifetime.end.p0i8(i64 4, i8* nonnull %3) #3
  ret i32 0
}

; Function Attrs: argmemonly mustprogress nofree nosync nounwind willreturn
declare void @llvm.lifetime.start.p0i8(i64 immarg, i8* nocapture) #1

; Function Attrs: nofree nounwind
declare noundef i32 @__isoc99_scanf(i8* nocapture noundef readonly, ...) local_unnamed_addr #2

; Function Attrs: nofree nounwind
declare noundef i32 @printf(i8* nocapture noundef readonly, ...) local_unnamed_addr #2

; Function Attrs: argmemonly mustprogress nofree nosync nounwind willreturn
declare void @llvm.lifetime.end.p0i8(i64 immarg, i8* nocapture) #1


!llvm.module.flags = !{!0, !1, !2, !3}
!llvm.ident = !{!4}

!0 = !{i32 1, !"wchar_size", i32 4}
!1 = !{i32 7, !"PIC Level", i32 2}
!2 = !{i32 7, !"PIE Level", i32 2}
!3 = !{i32 7, !"uwtable", i32 1}
!4 = !{!"clang version 13.0.0"}
!5 = !{!6, !6, i64 0}
!6 = !{!"int", !7, i64 0}
!7 = !{!"omnipotent char", !8, i64 0}
!8 = !{!"Simple C/C++ TBAA"}
!9 = distinct !{!9, !10}
!10 = !{!"llvm.loop.mustprogress"}
!11 = distinct !{!11, !10}
!12 = distinct !{!12, !10}
